target datalayout = "e-m:e-p270:32:32-p271:32:32-p272:64:64-i64:64-i128:128-f80:128-n8:16:32:64-S128"
target triple = "x86_64-pc-linux-gnu"

%struct.archive_entry_linkresolver = type { ptr, ptr, i64, i64, i32 }
%struct.links_entry = type { ptr, ptr, ptr, ptr, i64, i32 }

; Function Attrs: nounwind uwtable
define internal ptr @next_entry(ptr noundef %0, i32 noundef %1) #0 {
  %3 = alloca ptr, align 8
  %4 = alloca ptr, align 8
  %5 = alloca i32, align 4
  %6 = alloca ptr, align 8
  %7 = alloca i64, align 8
  %8 = alloca i32, align 4
  store ptr %0, ptr %4, align 8, !tbaa !4
  store i32 %1, ptr %5, align 4, !tbaa !16
  call void @llvm.lifetime.start.p0(i64 8, ptr %6) #5
  call void @llvm.lifetime.start.p0(i64 8, ptr %7) #5
  %9 = load ptr, ptr %4, align 8, !tbaa !4
  %10 = getelementptr inbounds nuw %struct.archive_entry_linkresolver, ptr %9, i32 0, i32 1
  %11 = load ptr, ptr %10, align 8, !tbaa !24
  %12 = icmp ne ptr %11, null
  br i1 %12, label %13, label %29

13:                                               ; preds = %2
  %14 = load ptr, ptr %4, align 8, !tbaa !4
  %15 = getelementptr inbounds nuw %struct.archive_entry_linkresolver, ptr %14, i32 0, i32 1
  %16 = load ptr, ptr %15, align 8, !tbaa !24
  %17 = getelementptr inbounds nuw %struct.links_entry, ptr %16, i32 0, i32 2
  %18 = load ptr, ptr %17, align 8, !tbaa !25
  call void @archive_entry_free(ptr noundef %18)
  %19 = load ptr, ptr %4, align 8, !tbaa !4
  %20 = getelementptr inbounds nuw %struct.archive_entry_linkresolver, ptr %19, i32 0, i32 1
  %21 = load ptr, ptr %20, align 8, !tbaa !24
  %22 = getelementptr inbounds nuw %struct.links_entry, ptr %21, i32 0, i32 3
  %23 = load ptr, ptr %22, align 8, !tbaa !19
  call void @archive_entry_free(ptr noundef %23)
  %24 = load ptr, ptr %4, align 8, !tbaa !4
  %25 = getelementptr inbounds nuw %struct.archive_entry_linkresolver, ptr %24, i32 0, i32 1
  %26 = load ptr, ptr %25, align 8, !tbaa !24
  call void @free(ptr noundef %26) #5
  %27 = load ptr, ptr %4, align 8, !tbaa !4
  %28 = getelementptr inbounds nuw %struct.archive_entry_linkresolver, ptr %27, i32 0, i32 1
  store ptr null, ptr %28, align 8, !tbaa !24
  br label %29

29:                                               ; preds = %13, %2
  store i64 0, ptr %7, align 8, !tbaa !26
  br label %30

30:                                               ; preds = %115, %29
  %31 = load i64, ptr %7, align 8, !tbaa !26
  %32 = load ptr, ptr %4, align 8, !tbaa !4
  %33 = getelementptr inbounds nuw %struct.archive_entry_linkresolver, ptr %32, i32 0, i32 3
  %34 = load i64, ptr %33, align 8, !tbaa !9
  %35 = icmp ult i64 %31, %34
  br i1 %35, label %36, label %118

36:                                               ; preds = %30
  %37 = load ptr, ptr %4, align 8, !tbaa !4
  %38 = getelementptr inbounds nuw %struct.archive_entry_linkresolver, ptr %37, i32 0, i32 0
  %39 = load ptr, ptr %38, align 8, !tbaa !15
  %40 = load i64, ptr %7, align 8, !tbaa !26
  %41 = getelementptr inbounds nuw ptr, ptr %39, i64 %40
  %42 = load ptr, ptr %41, align 8, !tbaa !18
  store ptr %42, ptr %6, align 8, !tbaa !18
  br label %43

43:                                               ; preds = %110, %36
  %44 = load ptr, ptr %6, align 8, !tbaa !18
  %45 = icmp ne ptr %44, null
  br i1 %45, label %46, label %114

46:                                               ; preds = %43
  %47 = load ptr, ptr %6, align 8, !tbaa !18
  %48 = getelementptr inbounds nuw %struct.links_entry, ptr %47, i32 0, i32 3
  %49 = load ptr, ptr %48, align 8, !tbaa !19
  %50 = icmp ne ptr %49, null
  br i1 %50, label %51, label %56

51:                                               ; preds = %46
  %52 = load i32, ptr %5, align 4, !tbaa !16
  %53 = and i32 %52, 1
  %54 = icmp eq i32 %53, 0
  br i1 %54, label %55, label %56

55:                                               ; preds = %51
  br label %110

56:                                               ; preds = %51, %46
  %57 = load ptr, ptr %6, align 8, !tbaa !18
  %58 = getelementptr inbounds nuw %struct.links_entry, ptr %57, i32 0, i32 3
  %59 = load ptr, ptr %58, align 8, !tbaa !19
  %60 = icmp eq ptr %59, null
  br i1 %60, label %61, label %66

61:                                               ; preds = %56
  %62 = load i32, ptr %5, align 4, !tbaa !16
  %63 = and i32 %62, 2
  %64 = icmp eq i32 %63, 0
  br i1 %64, label %65, label %66

65:                                               ; preds = %61
  br label %110

66:                                               ; preds = %61, %56
  %67 = load ptr, ptr %6, align 8, !tbaa !18
  %68 = getelementptr inbounds nuw %struct.links_entry, ptr %67, i32 0, i32 0
  %69 = load ptr, ptr %68, align 8, !tbaa !27
  %70 = icmp ne ptr %69, null
  br i1 %70, label %71, label %79

71:                                               ; preds = %66
  %72 = load ptr, ptr %6, align 8, !tbaa !18
  %73 = getelementptr inbounds nuw %struct.links_entry, ptr %72, i32 0, i32 1
  %74 = load ptr, ptr %73, align 8, !tbaa !28
  %75 = load ptr, ptr %6, align 8, !tbaa !18
  %76 = getelementptr inbounds nuw %struct.links_entry, ptr %75, i32 0, i32 0
  %77 = load ptr, ptr %76, align 8, !tbaa !27
  %78 = getelementptr inbounds nuw %struct.links_entry, ptr %77, i32 0, i32 1
  store ptr %74, ptr %78, align 8, !tbaa !28
  br label %79

79:                                               ; preds = %71, %66
  %80 = load ptr, ptr %6, align 8, !tbaa !18
  %81 = getelementptr inbounds nuw %struct.links_entry, ptr %80, i32 0, i32 1
  %82 = load ptr, ptr %81, align 8, !tbaa !28
  %83 = icmp ne ptr %82, null
  br i1 %83, label %84, label %92

84:                                               ; preds = %79
  %85 = load ptr, ptr %6, align 8, !tbaa !18
  %86 = getelementptr inbounds nuw %struct.links_entry, ptr %85, i32 0, i32 0
  %87 = load ptr, ptr %86, align 8, !tbaa !27
  %88 = load ptr, ptr %6, align 8, !tbaa !18
  %89 = getelementptr inbounds nuw %struct.links_entry, ptr %88, i32 0, i32 1
  %90 = load ptr, ptr %89, align 8, !tbaa !28
  %91 = getelementptr inbounds nuw %struct.links_entry, ptr %90, i32 0, i32 0
  store ptr %87, ptr %91, align 8, !tbaa !27
  br label %101

92:                                               ; preds = %79
  %93 = load ptr, ptr %6, align 8, !tbaa !18
  %94 = getelementptr inbounds nuw %struct.links_entry, ptr %93, i32 0, i32 0
  %95 = load ptr, ptr %94, align 8, !tbaa !27
  %96 = load ptr, ptr %4, align 8, !tbaa !4
  %97 = getelementptr inbounds nuw %struct.archive_entry_linkresolver, ptr %96, i32 0, i32 0
  %98 = load ptr, ptr %97, align 8, !tbaa !15
  %99 = load i64, ptr %7, align 8, !tbaa !26
  %100 = getelementptr inbounds nuw ptr, ptr %98, i64 %99
  store ptr %95, ptr %100, align 8, !tbaa !18
  br label %101

101:                                              ; preds = %92, %84
  %102 = load ptr, ptr %4, align 8, !tbaa !4
  %103 = getelementptr inbounds nuw %struct.archive_entry_linkresolver, ptr %102, i32 0, i32 2
  %104 = load i64, ptr %103, align 8, !tbaa !29
  %105 = add i64 %104, -1
  store i64 %105, ptr %103, align 8, !tbaa !29
  %106 = load ptr, ptr %6, align 8, !tbaa !18
  %107 = load ptr, ptr %4, align 8, !tbaa !4
  %108 = getelementptr inbounds nuw %struct.archive_entry_linkresolver, ptr %107, i32 0, i32 1
  store ptr %106, ptr %108, align 8, !tbaa !24
  %109 = load ptr, ptr %6, align 8, !tbaa !18
  store ptr %109, ptr %3, align 8
  store i32 1, ptr %8, align 4
  br label %119

110:                                              ; preds = %65, %55
  %111 = load ptr, ptr %6, align 8, !tbaa !18
  %112 = getelementptr inbounds nuw %struct.links_entry, ptr %111, i32 0, i32 0
  %113 = load ptr, ptr %112, align 8, !tbaa !27
  store ptr %113, ptr %6, align 8, !tbaa !18
  br label %43, !llvm.loop !30

114:                                              ; preds = %43
  br label %115

115:                                              ; preds = %114
  %116 = load i64, ptr %7, align 8, !tbaa !26
  %117 = add i64 %116, 1
  store i64 %117, ptr %7, align 8, !tbaa !26
  br label %30, !llvm.loop !31

118:                                              ; preds = %30
  store ptr null, ptr %3, align 8
  store i32 1, ptr %8, align 4
  br label %119

119:                                              ; preds = %118, %101
  call void @llvm.lifetime.end.p0(i64 8, ptr %7) #5
  call void @llvm.lifetime.end.p0(i64 8, ptr %6) #5
  %120 = load ptr, ptr %3, align 8
  ret ptr %120
}

; Function Attrs: nounwind uwtable
define dso_local void @archive_entry_linkresolver_free(ptr noundef %0) #0 {
  %2 = alloca ptr, align 8
  %3 = alloca ptr, align 8
  %4 = alloca i32, align 4
  store ptr %0, ptr %2, align 8, !tbaa !4
  call void @llvm.lifetime.start.p0(i64 8, ptr %3) #5
  %5 = load ptr, ptr %2, align 8, !tbaa !4
  %6 = icmp eq ptr %5, null
  br i1 %6, label %7, label %8

7:                                                ; preds = %1
  store i32 1, ptr %4, align 4
  br label %22

8:                                                ; preds = %1
  br label %9

9:                                                ; preds = %13, %8
  %10 = load ptr, ptr %2, align 8, !tbaa !4
  %11 = call ptr @next_entry(ptr noundef %10, i32 noundef 3)
  store ptr %11, ptr %3, align 8, !tbaa !18
  %12 = icmp ne ptr %11, null
  br i1 %12, label %13, label %17

13:                                               ; preds = %9
  %14 = load ptr, ptr %3, align 8, !tbaa !18
  %15 = getelementptr inbounds nuw %struct.links_entry, ptr %14, i32 0, i32 3
  %16 = load ptr, ptr %15, align 8, !tbaa !19
  call void @archive_entry_free(ptr noundef %16)
  br label %9, !llvm.loop !22

17:                                               ; preds = %9
  %18 = load ptr, ptr %2, align 8, !tbaa !4
  %19 = getelementptr inbounds nuw %struct.archive_entry_linkresolver, ptr %18, i32 0, i32 0
  %20 = load ptr, ptr %19, align 8, !tbaa !15
  call void @free(ptr noundef %20) #5
  %21 = load ptr, ptr %2, align 8, !tbaa !4
  call void @free(ptr noundef %21) #5
  store i32 0, ptr %4, align 4
  br label %22

22:                                               ; preds = %17, %7
  call void @llvm.lifetime.end.p0(i64 8, ptr %3) #5
  %23 = load i32, ptr %4, align 4
  switch i32 %23, label %25 [
    i32 0, label %24
    i32 1, label %24
  ]

24:                                               ; preds = %22, %22
  ret void

25:                                               ; preds = %22
  unreachable
}