; Function Attrs: nounwind uwtable
define dso_local void @archive_entry_linkresolver_free(ptr noundef %0) local_unnamed_addr #4 {
  %2 = icmp eq ptr %0, null
  br i1 %2, label %54, label %.split5

.split5:                                          ; preds = %1
  %3 = getelementptr inbounds nuw i8, ptr %0, i64 8
  %4 = load ptr, ptr %3, align 8, !tbaa !15
  %.not.i = icmp eq ptr %4, null
  br i1 %.not.i, label %12, label %5

5:                                                ; preds = %.split5
  %6 = getelementptr inbounds nuw i8, ptr %4, i64 16
  %7 = load ptr, ptr %6, align 8, !tbaa !16
  tail call void @archive_entry_free(ptr noundef %7) #7
  %8 = load ptr, ptr %3, align 8, !tbaa !15
  %9 = getelementptr inbounds nuw i8, ptr %8, i64 24
  %10 = load ptr, ptr %9, align 8, !tbaa !19
  tail call void @archive_entry_free(ptr noundef %10) #7
  %11 = load ptr, ptr %3, align 8, !tbaa !15
  tail call void @free(ptr noundef %11) #7
  store ptr null, ptr %3, align 8, !tbaa !15
  br label %12

12:                                               ; preds = %5, %.split5
  %13 = getelementptr inbounds nuw i8, ptr %0, i64 24
  %14 = load i64, ptr %13, align 8, !tbaa !4
  %.not94.i = icmp eq i64 %14, 0
  br i1 %.not94.i, label %._crit_edge, label %.lr.ph68.i

.lr.ph68.i:                                       ; preds = %12
  %15 = load ptr, ptr %0, align 8, !tbaa !13
  br label %.lr.ph68.split.split.i

.lr.ph68.split.split.i:                           ; preds = %23, %.lr.ph68.i
  %.064.i = phi i64 [ %24, %23 ], [ 0, %.lr.ph68.i ]
  %16 = getelementptr inbounds nuw ptr, ptr %15, i64 %.064.i
  %.02941.i = load ptr, ptr %16, align 8, !tbaa !20
  %.not3442.i = icmp eq ptr %.02941.i, null
  br i1 %.not3442.i, label %23, label %.split.us.i

.split.us.i:                                      ; preds = %.lr.ph68.split.split.i
  %17 = getelementptr inbounds nuw ptr, ptr %15, i64 %.064.i
  %18 = load ptr, ptr %.02941.i, align 8, !tbaa !21
  %.not36.i = icmp eq ptr %18, null
  %.phi.trans.insert.i = getelementptr inbounds nuw i8, ptr %.02941.i, i64 8
  %.pre.i = load ptr, ptr %.phi.trans.insert.i, align 8, !tbaa !22
  br i1 %.not36.i, label %.split.us._crit_edge.i, label %19

19:                                               ; preds = %.split.us.i
  %20 = getelementptr inbounds nuw i8, ptr %18, i64 8
  store ptr %.pre.i, ptr %20, align 8, !tbaa !22
  br label %.split.us._crit_edge.i

.split.us._crit_edge.i:                           ; preds = %19, %.split.us.i
  %.not37.i = icmp eq ptr %.pre.i, null
  br i1 %.not37.i, label %22, label %21

21:                                               ; preds = %.split.us._crit_edge.i
  store ptr %18, ptr %.pre.i, align 8, !tbaa !21
  br label %.split.lr.ph

22:                                               ; preds = %.split.us._crit_edge.i
  store ptr %18, ptr %17, align 8, !tbaa !20
  br label %.split.lr.ph

23:                                               ; preds = %.lr.ph68.split.split.i
  %24 = add nuw i64 %.064.i, 1
  %exitcond.not.i = icmp eq i64 %24, %14
  br i1 %exitcond.not.i, label %._crit_edge, label %.lr.ph68.split.split.i, !llvm.loop !23

.split.lr.ph:                                     ; preds = %22, %21
  %25 = getelementptr inbounds nuw i8, ptr %0, i64 16
  %26 = load i64, ptr %25, align 8, !tbaa !25
  %27 = add i64 %26, -1
  store i64 %27, ptr %25, align 8, !tbaa !25
  store ptr %.02941.i, ptr %3, align 8, !tbaa !15
  %28 = getelementptr inbounds nuw i8, ptr %0, i64 16
  br label %.split

.split:                                           ; preds = %next_entry.exit21, %.split.lr.ph
  %phi.call28 = phi ptr [ %.02941.i, %.split.lr.ph ], [ %.02941.i11, %next_entry.exit21 ]
  %29 = getelementptr inbounds nuw i8, ptr %phi.call28, i64 24
  %30 = load ptr, ptr %29, align 8, !tbaa !19
  tail call void @archive_entry_free(ptr noundef %30) #7
  %31 = load ptr, ptr %3, align 8, !tbaa !15
  %.not.i6 = icmp eq ptr %31, null
  br i1 %.not.i6, label %39, label %32

32:                                               ; preds = %.split
  %33 = getelementptr inbounds nuw i8, ptr %31, i64 16
  %34 = load ptr, ptr %33, align 8, !tbaa !16
  tail call void @archive_entry_free(ptr noundef %34) #7
  %35 = load ptr, ptr %3, align 8, !tbaa !15
  %36 = getelementptr inbounds nuw i8, ptr %35, i64 24
  %37 = load ptr, ptr %36, align 8, !tbaa !19
  tail call void @archive_entry_free(ptr noundef %37) #7
  %38 = load ptr, ptr %3, align 8, !tbaa !15
  tail call void @free(ptr noundef %38) #7
  store ptr null, ptr %3, align 8, !tbaa !15
  br label %39

39:                                               ; preds = %32, %.split
  %40 = load i64, ptr %13, align 8, !tbaa !4
  %.not94.i7 = icmp eq i64 %40, 0
  br i1 %.not94.i7, label %._crit_edge, label %.lr.ph68.i8

.lr.ph68.i8:                                      ; preds = %39
  %41 = load ptr, ptr %0, align 8, !tbaa !13
  br label %.lr.ph68.split.split.i9

.lr.ph68.split.split.i9:                          ; preds = %49, %.lr.ph68.i8
  %.064.i10 = phi i64 [ %50, %49 ], [ 0, %.lr.ph68.i8 ]
  %42 = getelementptr inbounds nuw ptr, ptr %41, i64 %.064.i10
  %.02941.i11 = load ptr, ptr %42, align 8, !tbaa !20
  %.not3442.i12 = icmp eq ptr %.02941.i11, null
  br i1 %.not3442.i12, label %49, label %.split.us.i13

.split.us.i13:                                    ; preds = %.lr.ph68.split.split.i9
  %43 = getelementptr inbounds nuw ptr, ptr %41, i64 %.064.i10
  %44 = load ptr, ptr %.02941.i11, align 8, !tbaa !21
  %.not36.i14 = icmp eq ptr %44, null
  %.phi.trans.insert.i15 = getelementptr inbounds nuw i8, ptr %.02941.i11, i64 8
  %.pre.i16 = load ptr, ptr %.phi.trans.insert.i15, align 8, !tbaa !22
  br i1 %.not36.i14, label %.split.us._crit_edge.i17, label %45

45:                                               ; preds = %.split.us.i13
  %46 = getelementptr inbounds nuw i8, ptr %44, i64 8
  store ptr %.pre.i16, ptr %46, align 8, !tbaa !22
  br label %.split.us._crit_edge.i17

.split.us._crit_edge.i17:                         ; preds = %45, %.split.us.i13
  %.not37.i18 = icmp eq ptr %.pre.i16, null
  br i1 %.not37.i18, label %48, label %47

47:                                               ; preds = %.split.us._crit_edge.i17
  store ptr %44, ptr %.pre.i16, align 8, !tbaa !21
  br label %next_entry.exit21

48:                                               ; preds = %.split.us._crit_edge.i17
  store ptr %44, ptr %43, align 8, !tbaa !20
  br label %next_entry.exit21

49:                                               ; preds = %.lr.ph68.split.split.i9
  %50 = add nuw i64 %.064.i10, 1
  %exitcond.not.i20 = icmp eq i64 %50, %40
  br i1 %exitcond.not.i20, label %._crit_edge, label %.lr.ph68.split.split.i9, !llvm.loop !23

next_entry.exit21:                                ; preds = %47, %48
  %51 = load i64, ptr %28, align 8, !tbaa !25
  %52 = add i64 %51, -1
  store i64 %52, ptr %28, align 8, !tbaa !25
  store ptr %.02941.i11, ptr %3, align 8, !tbaa !15
  br label %.split, !llvm.loop !26

._crit_edge:                                      ; preds = %23, %39, %49, %12
  %53 = load ptr, ptr %0, align 8, !tbaa !13
  tail call void @free(ptr noundef %53) #7
  tail call void @free(ptr noundef %0) #7
  br label %54

54:                                               ; preds = %1, %._crit_edge
  ret void
}